target datalayout = "e-m:e-p270:32:32-p271:32:32-p272:64:64-i64:64-i128:128-f80:128-n8:16:32:64-S128"
target triple = "x86_64-pc-linux-gnu"

%"class.icu_77::MaybeStackArray" = type <{ ptr, i32, i8, [40 x i8], [3 x i8] }>
%"class.icu_77::UObject" = type { ptr }
%"class.icu_77::UnicodeString" = type { %"class.icu_77::Replaceable", %"union.icu_77::UnicodeString::StackBufferOrFields" }
%"class.icu_77::Replaceable" = type { %"class.icu_77::UObject" }
%"union.icu_77::UnicodeString::StackBufferOrFields" = type { %struct.anon.0, [32 x i8] }
%struct.anon.0 = type { i16, i32, i32, ptr }
%struct.anon = type { i16, [27 x i16] }
%"struct.icu_77::(anonymous namespace)::CalendarDataSink" = type { %"class.icu_77::ResourceSink", %"class.icu_77::Hashtable", %"class.icu_77::Hashtable", %"class.icu_77::Hashtable", %"class.icu_77::MemoryPool", %"class.icu_77::UVector", %"class.icu_77::UnicodeString", %"class.icu_77::UnicodeString", %"class.icu_77::LocalPointer", %"class.icu_77::UnicodeString" }
%"class.icu_77::ResourceSink" = type { %"class.icu_77::UObject" }
%"class.icu_77::Hashtable" = type { ptr, %struct.UHashtable }
%struct.UHashtable = type { ptr, ptr, ptr, ptr, ptr, ptr, i32, i32, i32, i32, float, float, i8, i8 }
%"class.icu_77::MemoryPool" = type { i32, %"class.icu_77::MaybeStackArray.3" }
%"class.icu_77::MaybeStackArray.3" = type { ptr, i32, i8, [8 x ptr] }
%"class.icu_77::UVector" = type { %"class.icu_77::UObject", i32, i32, ptr, ptr, ptr }
%"class.icu_77::LocalPointer" = type { %"class.icu_77::LocalPointerBase" }
%"class.icu_77::LocalPointerBase" = type { ptr }
%"class.icu_77::CharString" = type { %"class.icu_77::MaybeStackArray", i32, [4 x i8] }

@_ZTVN6icu_777UObjectE = available_externally unnamed_addr constant { [5 x ptr] } { [5 x ptr] [ptr null, ptr @_ZTIN6icu_777UObjectE, ptr @_ZN6icu_777UObjectD1Ev, ptr @_ZN6icu_777UObjectD0Ev, ptr @_ZNK6icu_777UObject17getDynamicClassIDEv] }, align 8
@_ZN6icu_77L13dayPeriodKeysE = internal global [10 x ptr] [ptr @.str.14, ptr @.str.15, ptr @.str.16, ptr @.str.17, ptr @.str.18, ptr @.str.19, ptr @.str.20, ptr @.str.21, ptr @.str.22, ptr @.str.23], align 16

; Function Attrs: inlinehint mustprogress nounwind uwtable
define linkonce_odr void @_ZN6icu_777UObjectC2Ev(ptr noundef nonnull align 8 dereferenceable(8) %0) unnamed_addr #2 comdat align 2 {
  %2 = alloca ptr, align 8
  store ptr %0, ptr %2, align 8, !tbaa !48
  %3 = load ptr, ptr %2, align 8
  store ptr getelementptr inbounds inrange(-16, 24) ({ [5 x ptr] }, ptr @_ZTVN6icu_777UObjectE, i32 0, i32 0, i32 2), ptr %3, align 8, !tbaa !25
  ret void
}

; Function Attrs: inlinehint mustprogress nounwind uwtable
define linkonce_odr void @_ZN6icu_7711ReplaceableC2Ev(ptr noundef nonnull align 8 dereferenceable(8) %0) unnamed_addr #2 comdat align 2 {
  %2 = alloca ptr, align 8
  store ptr %0, ptr %2, align 8, !tbaa !218
  %3 = load ptr, ptr %2, align 8
  call void @_ZN6icu_777UObjectC2Ev(ptr noundef nonnull align 8 dereferenceable(8) %3) #14
  store ptr getelementptr inbounds inrange(-16, 88) ({ [13 x ptr] }, ptr @_ZTVN6icu_7711ReplaceableE, i32 0, i32 0, i32 2), ptr %3, align 8, !tbaa !25
  ret void
}

; Function Attrs: mustprogress nounwind uwtable
define weak_odr noundef ptr @_ZNK6icu_7715MaybeStackArrayIcLi40EE8getAliasEv(ptr noundef nonnull align 8 dereferenceable(53) %0) #0 comdat align 2 {
  %2 = alloca ptr, align 8
  store ptr %0, ptr %2, align 8, !tbaa !3
  %3 = load ptr, ptr %2, align 8
  %4 = getelementptr inbounds nuw %"class.icu_77::MaybeStackArray", ptr %3, i32 0, i32 0
  %5 = load ptr, ptr %4, align 8, !tbaa !8
  ret ptr %5
}

; Function Attrs: inlinehint mustprogress uwtable
define linkonce_odr void @_ZN6icu_7713UnicodeStringC2Ev(ptr noundef nonnull align 8 dereferenceable(64) %0) unnamed_addr #3 comdat align 2 {
  %2 = alloca ptr, align 8
  store ptr %0, ptr %2, align 8, !tbaa !50
  %3 = load ptr, ptr %2, align 8
  call void @_ZN6icu_7711ReplaceableC2Ev(ptr noundef nonnull align 8 dereferenceable(8) %3)
  store ptr getelementptr inbounds inrange(-16, 88) ({ [13 x ptr] }, ptr @_ZTVN6icu_7713UnicodeStringE, i32 0, i32 0, i32 2), ptr %3, align 8, !tbaa !25
  %4 = getelementptr inbounds nuw %"class.icu_77::UnicodeString", ptr %3, i32 0, i32 1
  %5 = getelementptr inbounds nuw %struct.anon, ptr %4, i32 0, i32 0
  store i16 2, ptr %5, align 8, !tbaa !51
  ret void
}

; Function Attrs: inlinehint mustprogress uwtable
define linkonce_odr noundef ptr @_ZNK6icu_779Hashtable3getERKNS_13UnicodeStringE(ptr noundef nonnull align 8 dereferenceable(88) %0, ptr noundef nonnull align 8 dereferenceable(64) %1) #3 comdat align 2 {
  %3 = alloca ptr, align 8
  %4 = alloca ptr, align 8
  store ptr %0, ptr %3, align 8, !tbaa !187
  store ptr %1, ptr %4, align 8, !tbaa !50
  %5 = load ptr, ptr %3, align 8
  %6 = getelementptr inbounds nuw %"class.icu_77::Hashtable", ptr %5, i32 0, i32 0
  %7 = load ptr, ptr %6, align 8, !tbaa !222
  %8 = load ptr, ptr %4, align 8, !tbaa !50
  %9 = call ptr @uhash_get_77(ptr noundef %7, ptr noundef %8)
  ret ptr %9
}

; Function Attrs: mustprogress nounwind uwtable
define linkonce_odr noundef ptr @_ZN6icu_7710CharString4dataEv(ptr noundef nonnull align 8 dereferenceable(60) %0) #0 comdat align 2 {
  %2 = alloca ptr, align 8
  store ptr %0, ptr %2, align 8, !tbaa !142
  %3 = load ptr, ptr %2, align 8
  %4 = getelementptr inbounds nuw %"class.icu_77::CharString", ptr %3, i32 0, i32 0
  %5 = call noundef ptr @_ZNK6icu_7715MaybeStackArrayIcLi40EE8getAliasEv(ptr noundef nonnull align 8 dereferenceable(53) %4)
  ret ptr %5
}

; Function Attrs: inlinehint mustprogress nounwind uwtable
define internal noundef signext i8 @_ZL9U_FAILURE10UErrorCode(i32 noundef %0) #2 {
  %2 = alloca i32, align 4
  store i32 %0, ptr %2, align 4, !tbaa !15
  %3 = load i32, ptr %2, align 4, !tbaa !15
  %4 = icmp sgt i32 %3, 0
  %5 = zext i1 %4 to i8
  ret i8 %5
}

; Function Attrs: mustprogress uwtable
define internal noundef ptr @_ZN6icu_7720loadDayPeriodStringsERNS_12_GLOBAL__N_116CalendarDataSinkERNS_10CharStringERiR10UErrorCode(ptr noundef nonnull align 8 dereferenceable(600) %0, ptr noundef nonnull align 8 dereferenceable(60) %1, ptr noundef nonnull align 4 dereferenceable(4) %2, ptr noundef nonnull align 4 dereferenceable(4) %3) #1 personality ptr @__gxx_personality_v0 {
  %5 = alloca ptr, align 8
  %6 = alloca ptr, align 8
  %7 = alloca ptr, align 8
  %8 = alloca ptr, align 8
  %9 = alloca ptr, align 8
  %10 = alloca %"class.icu_77::UnicodeString", align 8
  %11 = alloca ptr, align 8
  %12 = alloca ptr, align 8
  %13 = alloca i32, align 4
  %14 = alloca ptr, align 8
  %15 = alloca ptr, align 8
  %16 = alloca i64, align 8
  %17 = alloca i1, align 1
  %18 = alloca ptr, align 8
  %19 = alloca ptr, align 8
  %20 = alloca i1, align 1
  %21 = alloca i32, align 4
  %22 = alloca i32, align 4
  %23 = alloca %"class.icu_77::UnicodeString", align 8
  %24 = alloca ptr, align 8
  %25 = alloca i32, align 4
  store ptr %0, ptr %6, align 8, !tbaa !168
  store ptr %1, ptr %7, align 8, !tbaa !142
  store ptr %2, ptr %8, align 8, !tbaa !20
  store ptr %3, ptr %9, align 8, !tbaa !22
  %26 = load ptr, ptr %9, align 8, !tbaa !22
  %27 = load i32, ptr %26, align 4, !tbaa !15
  %28 = call noundef signext i8 @_ZL9U_FAILURE10UErrorCode(i32 noundef %27)
  %29 = icmp ne i8 %28, 0
  br i1 %29, label %30, label %31

30:                                               ; preds = %4
  store ptr null, ptr %5, align 8
  br label %167

31:                                               ; preds = %4
  call void @llvm.lifetime.start.p0(i64 64, ptr %10) #14
  %32 = load ptr, ptr %7, align 8, !tbaa !142
  %33 = call noundef ptr @_ZN6icu_7710CharString4dataEv(ptr noundef nonnull align 8 dereferenceable(60) %32)
  call void @_ZN6icu_7713UnicodeStringC1EPKciNS0_10EInvariantE(ptr noundef nonnull align 8 dereferenceable(64) %10, ptr noundef %33, i32 noundef -1, i32 noundef 0)
  call void @llvm.lifetime.start.p0(i64 8, ptr %11) #14
  %34 = load ptr, ptr %6, align 8, !tbaa !168
  %35 = getelementptr inbounds nuw %"struct.icu_77::(anonymous namespace)::CalendarDataSink", ptr %34, i32 0, i32 3
  %36 = invoke noundef ptr @_ZNK6icu_779Hashtable3getERKNS_13UnicodeStringE(ptr noundef nonnull align 8 dereferenceable(88) %35, ptr noundef nonnull align 8 dereferenceable(64) %10)
          to label %37 unwind label %69

37:                                               ; preds = %31
  store ptr %36, ptr %11, align 8, !tbaa !187
  %38 = load ptr, ptr %8, align 8, !tbaa !20
  store i32 10, ptr %38, align 4, !tbaa !14
  call void @llvm.lifetime.start.p0(i64 8, ptr %14) #14
  %39 = load ptr, ptr %8, align 8, !tbaa !20
  %40 = load i32, ptr %39, align 4, !tbaa !14
  %41 = sext i32 %40 to i64
  %42 = call { i64, i1 } @llvm.umul.with.overflow.i64(i64 %41, i64 64)
  %43 = extractvalue { i64, i1 } %42, 1
  %44 = extractvalue { i64, i1 } %42, 0
  %45 = call { i64, i1 } @llvm.uadd.with.overflow.i64(i64 %44, i64 8)
  %46 = extractvalue { i64, i1 } %45, 1
  %47 = or i1 %43, %46
  %48 = extractvalue { i64, i1 } %45, 0
  %49 = select i1 %47, i64 -1, i64 %48
  %50 = call noundef ptr @_ZN6icu_777UMemorynaEm(i64 noundef %49) #14
  %51 = icmp eq ptr %50, null
  store i1 false, ptr %17, align 1
  store i1 false, ptr %20, align 1
  br i1 %51, label %63, label %52

52:                                               ; preds = %37
  store ptr %50, ptr %15, align 8
  store i64 %49, ptr %16, align 8
  store i1 true, ptr %17, align 1
  store i64 %41, ptr %50, align 8
  %53 = getelementptr inbounds i8, ptr %50, i64 8
  %54 = icmp eq i64 %41, 0
  br i1 %54, label %62, label %55

55:                                               ; preds = %52
  %56 = getelementptr inbounds %"class.icu_77::UnicodeString", ptr %53, i64 %41
  br label %57

57:                                               ; preds = %59, %55
  %58 = phi ptr [ %53, %55 ], [ %60, %59 ]
  store ptr %53, ptr %18, align 8
  store ptr %58, ptr %19, align 8
  store i1 true, ptr %20, align 1
  invoke void @_ZN6icu_7713UnicodeStringC2Ev(ptr noundef nonnull align 8 dereferenceable(64) %58)
          to label %59 unwind label %73

59:                                               ; preds = %57
  %60 = getelementptr inbounds %"class.icu_77::UnicodeString", ptr %58, i64 1
  %61 = icmp eq ptr %60, %56
  br i1 %61, label %62, label %57

62:                                               ; preds = %52, %59
  br label %63

63:                                               ; preds = %62, %37
  %64 = phi ptr [ %53, %62 ], [ null, %37 ]
  store ptr %64, ptr %14, align 8, !tbaa !50
  %65 = load ptr, ptr %14, align 8, !tbaa !50
  %66 = icmp eq ptr %65, null
  br i1 %66, label %67, label %92

67:                                               ; preds = %63
  %68 = load ptr, ptr %9, align 8, !tbaa !22
  store i32 7, ptr %68, align 4, !tbaa !15
  store ptr null, ptr %5, align 8
  store i32 1, ptr %21, align 4
  br label %164

69:                                               ; preds = %31
  %70 = landingpad { ptr, i32 }
          cleanup
  %71 = extractvalue { ptr, i32 } %70, 0
  store ptr %71, ptr %12, align 8
  %72 = extractvalue { ptr, i32 } %70, 1
  store i32 %72, ptr %13, align 4
  br label %166

73:                                               ; preds = %57
  %74 = landingpad { ptr, i32 }
          cleanup
  %75 = extractvalue { ptr, i32 } %74, 0
  store ptr %75, ptr %12, align 8
  %76 = extractvalue { ptr, i32 } %74, 1
  store i32 %76, ptr %13, align 4
  %77 = load i1, ptr %20, align 1
  br i1 %77, label %78, label %87

78:                                               ; preds = %73
  %79 = load ptr, ptr %18, align 8
  %80 = load ptr, ptr %19, align 8
  %81 = icmp eq ptr %79, %80
  br i1 %81, label %86, label %82

82:                                               ; preds = %82, %78
  %83 = phi ptr [ %80, %78 ], [ %84, %82 ]
  %84 = getelementptr inbounds %"class.icu_77::UnicodeString", ptr %83, i64 -1
  call void @_ZN6icu_7713UnicodeStringD1Ev(ptr noundef nonnull align 8 dereferenceable(64) %84) #14
  %85 = icmp eq ptr %84, %79
  br i1 %85, label %86, label %82

86:                                               ; preds = %82, %78
  br label %87

87:                                               ; preds = %86, %73
  %88 = load i1, ptr %17, align 1
  br i1 %88, label %89, label %91

89:                                               ; preds = %87
  %90 = load ptr, ptr %15, align 8
  call void @_ZN6icu_777UMemorydaEPv(ptr noundef %90) #14
  br label %91

91:                                               ; preds = %89, %87
  br label %165

92:                                               ; preds = %63
  %93 = load ptr, ptr %11, align 8, !tbaa !187
  %94 = icmp ne ptr %93, null
  br i1 %94, label %95, label %141

95:                                               ; preds = %92
  call void @llvm.lifetime.start.p0(i64 4, ptr %22) #14
  store i32 0, ptr %22, align 4, !tbaa !14
  br label %96

96:                                               ; preds = %136, %95
  %97 = load i32, ptr %22, align 4, !tbaa !14
  %98 = load ptr, ptr %8, align 8, !tbaa !20
  %99 = load i32, ptr %98, align 4, !tbaa !14
  %100 = icmp slt i32 %97, %99
  br i1 %100, label %102, label %101

101:                                              ; preds = %96
  store i32 2, ptr %21, align 4
  call void @llvm.lifetime.end.p0(i64 4, ptr %22) #14
  br label %140

102:                                              ; preds = %96
  call void @llvm.lifetime.start.p0(i64 64, ptr %23) #14
  %103 = load i32, ptr %22, align 4, !tbaa !14
  %104 = sext i32 %103 to i64
  %105 = getelementptr inbounds [10 x ptr], ptr @_ZN6icu_77L13dayPeriodKeysE, i64 0, i64 %104
  %106 = load ptr, ptr %105, align 8, !tbaa !17
  invoke void @_ZN6icu_7713UnicodeStringC1EPKciNS0_10EInvariantE(ptr noundef nonnull align 8 dereferenceable(64) %23, ptr noundef %106, i32 noundef -1, i32 noundef 0)
          to label %107 unwind label %121

107:                                              ; preds = %102
  call void @llvm.lifetime.start.p0(i64 8, ptr %24) #14
  %108 = load ptr, ptr %11, align 8, !tbaa !187
  %109 = invoke noundef ptr @_ZNK6icu_779Hashtable3getERKNS_13UnicodeStringE(ptr noundef nonnull align 8 dereferenceable(88) %108, ptr noundef nonnull align 8 dereferenceable(64) %23)
          to label %110 unwind label %125

110:                                              ; preds = %107
  store ptr %109, ptr %24, align 8, !tbaa !50
  %111 = load ptr, ptr %24, align 8, !tbaa !50
  %112 = icmp ne ptr %111, null
  br i1 %112, label %113, label %129

113:                                              ; preds = %110
  %114 = load ptr, ptr %14, align 8, !tbaa !50
  %115 = load i32, ptr %22, align 4, !tbaa !14
  %116 = sext i32 %115 to i64
  %117 = getelementptr inbounds %"class.icu_77::UnicodeString", ptr %114, i64 %116
  %118 = load ptr, ptr %24, align 8, !tbaa !50
  %119 = invoke noundef nonnull align 8 dereferenceable(64) ptr @_ZN6icu_7713UnicodeString12fastCopyFromERKS0_(ptr noundef nonnull align 8 dereferenceable(64) %117, ptr noundef nonnull align 8 dereferenceable(64) %118)
          to label %120 unwind label %125

120:                                              ; preds = %113
  br label %135

121:                                              ; preds = %102
  %122 = landingpad { ptr, i32 }
          cleanup
  %123 = extractvalue { ptr, i32 } %122, 0
  store ptr %123, ptr %12, align 8
  %124 = extractvalue { ptr, i32 } %122, 1
  store i32 %124, ptr %13, align 4
  br label %139

125:                                              ; preds = %129, %113, %107
  %126 = landingpad { ptr, i32 }
          cleanup
  %127 = extractvalue { ptr, i32 } %126, 0
  store ptr %127, ptr %12, align 8
  %128 = extractvalue { ptr, i32 } %126, 1
  store i32 %128, ptr %13, align 4
  call void @llvm.lifetime.end.p0(i64 8, ptr %24) #14
  call void @_ZN6icu_7713UnicodeStringD1Ev(ptr noundef nonnull align 8 dereferenceable(64) %23) #14
  br label %139

129:                                              ; preds = %110
  %130 = load ptr, ptr %14, align 8, !tbaa !50
  %131 = load i32, ptr %22, align 4, !tbaa !14
  %132 = sext i32 %131 to i64
  %133 = getelementptr inbounds %"class.icu_77::UnicodeString", ptr %130, i64 %132
  invoke void @_ZN6icu_7713UnicodeString10setToBogusEv(ptr noundef nonnull align 8 dereferenceable(64) %133)
          to label %134 unwind label %125

134:                                              ; preds = %129
  br label %135

135:                                              ; preds = %134, %120
  call void @llvm.lifetime.end.p0(i64 8, ptr %24) #14
  call void @_ZN6icu_7713UnicodeStringD1Ev(ptr noundef nonnull align 8 dereferenceable(64) %23) #14
  call void @llvm.lifetime.end.p0(i64 64, ptr %23) #14
  br label %136

136:                                              ; preds = %135
  %137 = load i32, ptr %22, align 4, !tbaa !14
  %138 = add nsw i32 %137, 1
  store i32 %138, ptr %22, align 4, !tbaa !14
  br label %96, !llvm.loop !198

139:                                              ; preds = %125, %121
  call void @llvm.lifetime.end.p0(i64 64, ptr %23) #14
  call void @llvm.lifetime.end.p0(i64 4, ptr %22) #14
  br label %165

140:                                              ; preds = %101
  br label %162

141:                                              ; preds = %92
  call void @llvm.lifetime.start.p0(i64 4, ptr %25) #14
  store i32 0, ptr %25, align 4, !tbaa !14
  br label %142

142:                                              ; preds = %154, %141
  %143 = load i32, ptr %25, align 4, !tbaa !14
  %144 = load ptr, ptr %8, align 8, !tbaa !20
  %145 = load i32, ptr %144, align 4, !tbaa !14
  %146 = icmp slt i32 %143, %145
  br i1 %146, label %148, label %147

147:                                              ; preds = %142
  store i32 5, ptr %21, align 4
  call void @llvm.lifetime.end.p0(i64 4, ptr %25) #14
  br label %161

148:                                              ; preds = %142
  %149 = load ptr, ptr %14, align 8, !tbaa !50
  %150 = load i32, ptr %25, align 4, !tbaa !14
  %151 = sext i32 %150 to i64
  %152 = getelementptr inbounds %"class.icu_77::UnicodeString", ptr %149, i64 %151
  invoke void @_ZN6icu_7713UnicodeString10setToBogusEv(ptr noundef nonnull align 8 dereferenceable(64) %152)
          to label %153 unwind label %157

153:                                              ; preds = %148
  br label %154

154:                                              ; preds = %153
  %155 = load i32, ptr %25, align 4, !tbaa !14
  %156 = add nsw i32 %155, 1
  store i32 %156, ptr %25, align 4, !tbaa !14
  br label %142, !llvm.loop !199

157:                                              ; preds = %148
  %158 = landingpad { ptr, i32 }
          cleanup
  %159 = extractvalue { ptr, i32 } %158, 0
  store ptr %159, ptr %12, align 8
  %160 = extractvalue { ptr, i32 } %158, 1
  store i32 %160, ptr %13, align 4
  call void @llvm.lifetime.end.p0(i64 4, ptr %25) #14
  br label %165

161:                                              ; preds = %147
  br label %162

162:                                              ; preds = %161, %140
  %163 = load ptr, ptr %14, align 8, !tbaa !50
  store ptr %163, ptr %5, align 8
  store i32 1, ptr %21, align 4
  br label %164

164:                                              ; preds = %162, %67
  call void @llvm.lifetime.end.p0(i64 8, ptr %14) #14
  call void @llvm.lifetime.end.p0(i64 8, ptr %11) #14
  call void @_ZN6icu_7713UnicodeStringD1Ev(ptr noundef nonnull align 8 dereferenceable(64) %10) #14
  call void @llvm.lifetime.end.p0(i64 64, ptr %10) #14
  br label %167

165:                                              ; preds = %157, %139, %91
  call void @llvm.lifetime.end.p0(i64 8, ptr %14) #14
  br label %166

166:                                              ; preds = %165, %69
  call void @llvm.lifetime.end.p0(i64 8, ptr %11) #14
  call void @_ZN6icu_7713UnicodeStringD1Ev(ptr noundef nonnull align 8 dereferenceable(64) %10) #14
  call void @llvm.lifetime.end.p0(i64 64, ptr %10) #14
  br label %169

167:                                              ; preds = %164, %30
  %168 = load ptr, ptr %5, align 8
  ret ptr %168

169:                                              ; preds = %166
  %170 = load ptr, ptr %12, align 8
  %171 = load i32, ptr %13, align 4
  %172 = insertvalue { ptr, i32 } poison, ptr %170, 0
  %173 = insertvalue { ptr, i32 } %172, i32 %171, 1
  resume { ptr, i32 } %173
}