; Function Attrs: mustprogress uwtable
define internal fastcc noundef ptr @_ZN6icu_7720loadDayPeriodStringsERNS_12_GLOBAL__N_116CalendarDataSinkERNS_10CharStringERiR10UErrorCode(ptr noundef nonnull readonly align 8 captures(none) dereferenceable(600) %0, ptr %.0.val, ptr noundef nonnull align 4 captures(none) dereferenceable(4) %1, ptr noundef nonnull align 4 captures(none) dereferenceable(4) %2) unnamed_addr #1 personality ptr @__gxx_personality_v0 {
  %4 = alloca %"class.icu_77::UnicodeString", align 8
  %5 = alloca %"class.icu_77::UnicodeString", align 8
  %6 = load i32, ptr %2, align 4, !tbaa !13
  %7 = icmp slt i32 %6, 1
  br i1 %7, label %8, label %50

8:                                                ; preds = %3
  call void @llvm.lifetime.start.p0(i64 64, ptr nonnull %4) #19
  call void @_ZN6icu_7713UnicodeStringC1EPKciNS0_10EInvariantE(ptr noundef nonnull align 8 dereferenceable(64) %4, ptr noundef %.0.val, i32 noundef -1, i32 noundef 0)
  %9 = getelementptr inbounds nuw i8, ptr %0, i64 184
  %10 = load ptr, ptr %9, align 8, !tbaa !100
  %11 = invoke noundef ptr @uhash_get_77(ptr noundef %10, ptr noundef nonnull align 8 dereferenceable(64) %4)
          to label %_ZNK6icu_779Hashtable3getERKNS_13UnicodeStringE.exit unwind label %19

_ZNK6icu_779Hashtable3getERKNS_13UnicodeStringE.exit: ; preds = %8
  store i32 10, ptr %1, align 4, !tbaa !12
  %12 = call noundef ptr @_ZN6icu_777UMemorynaEm(i64 noundef 648) #19
  %13 = icmp eq ptr %12, null
  br i1 %13, label %18, label %14

14:                                               ; preds = %_ZNK6icu_779Hashtable3getERKNS_13UnicodeStringE.exit
  store i64 10, ptr %12, align 8
  br label %15

15:                                               ; preds = %14, %15
  %.idx = phi i64 [ 8, %14 ], [ %.add, %15 ]
  %.ptr.ptr = getelementptr inbounds nuw i8, ptr %12, i64 %.idx
  store ptr getelementptr inbounds nuw inrange(-16, 88) (i8, ptr @_ZTVN6icu_7713UnicodeStringE, i64 16), ptr %.ptr.ptr, align 8, !tbaa !15
  %16 = getelementptr inbounds nuw i8, ptr %.ptr.ptr, i64 8
  store i16 2, ptr %16, align 8, !tbaa !23
  %.add = add nuw nsw i64 %.idx, 64
  %17 = icmp samesign eq i64 %.add, 648
  br i1 %17, label %21, label %15

18:                                               ; preds = %_ZNK6icu_779Hashtable3getERKNS_13UnicodeStringE.exit
  store i32 7, ptr %2, align 4, !tbaa !13
  br label %.loopexit

19:                                               ; preds = %8
  %20 = landingpad { ptr, i32 }
          cleanup
  br label %49

21:                                               ; preds = %15
  %.ptr46 = getelementptr inbounds nuw i8, ptr %12, i64 8
  %.not51 = icmp eq ptr %11, null
  %22 = load i32, ptr %1, align 4, !tbaa !12
  %23 = icmp sgt i32 %22, 0
  br i1 %.not51, label %.preheader, label %.preheader1

.preheader1:                                      ; preds = %21
  br i1 %23, label %.lr.ph, label %.loopexit

.preheader:                                       ; preds = %21
  br i1 %23, label %.lr.ph5, label %.loopexit

.lr.ph:                                           ; preds = %.preheader1, %37
  %indvars.iv = phi i64 [ %indvars.iv.next, %37 ], [ 0, %.preheader1 ]
  call void @llvm.lifetime.start.p0(i64 64, ptr nonnull %5) #19
  %24 = getelementptr inbounds nuw [10 x ptr], ptr @_ZN6icu_77L13dayPeriodKeysE, i64 0, i64 %indvars.iv
  %25 = load ptr, ptr %24, align 8, !tbaa !161
  invoke void @_ZN6icu_7713UnicodeStringC1EPKciNS0_10EInvariantE(ptr noundef nonnull align 8 dereferenceable(64) %5, ptr noundef %25, i32 noundef -1, i32 noundef 0)
          to label %26 unwind label %32

26:                                               ; preds = %.lr.ph
  %27 = load ptr, ptr %11, align 8, !tbaa !100
  %28 = invoke noundef ptr @uhash_get_77(ptr noundef %27, ptr noundef nonnull align 8 dereferenceable(64) %5)
          to label %_ZNK6icu_779Hashtable3getERKNS_13UnicodeStringE.exit56 unwind label %34

_ZNK6icu_779Hashtable3getERKNS_13UnicodeStringE.exit56: ; preds = %26
  %.not52 = icmp eq ptr %28, null
  %29 = getelementptr inbounds nuw %"class.icu_77::UnicodeString", ptr %.ptr46, i64 %indvars.iv
  br i1 %.not52, label %36, label %30

30:                                               ; preds = %_ZNK6icu_779Hashtable3getERKNS_13UnicodeStringE.exit56
  %31 = invoke noundef nonnull align 8 dereferenceable(64) ptr @_ZN6icu_7713UnicodeString12fastCopyFromERKS0_(ptr noundef nonnull align 8 dereferenceable(64) %29, ptr noundef nonnull align 8 dereferenceable(64) %28)
          to label %37 unwind label %34

32:                                               ; preds = %.lr.ph
  %33 = landingpad { ptr, i32 }
          cleanup
  br label %41

34:                                               ; preds = %26, %36, %30
  %35 = landingpad { ptr, i32 }
          cleanup
  call void @_ZN6icu_7713UnicodeStringD1Ev(ptr noundef nonnull align 8 dereferenceable(64) %5) #19
  br label %41

36:                                               ; preds = %_ZNK6icu_779Hashtable3getERKNS_13UnicodeStringE.exit56
  invoke void @_ZN6icu_7713UnicodeString10setToBogusEv(ptr noundef nonnull align 8 dereferenceable(64) %29)
          to label %37 unwind label %34

37:                                               ; preds = %36, %30
  call void @_ZN6icu_7713UnicodeStringD1Ev(ptr noundef nonnull align 8 dereferenceable(64) %5) #19
  call void @llvm.lifetime.end.p0(i64 64, ptr nonnull %5) #19
  %indvars.iv.next = add nuw nsw i64 %indvars.iv, 1
  %38 = load i32, ptr %1, align 4, !tbaa !12
  %39 = sext i32 %38 to i64
  %40 = icmp slt i64 %indvars.iv.next, %39
  br i1 %40, label %.lr.ph, label %.loopexit, !llvm.loop !162

41:                                               ; preds = %34, %32
  %.pn = phi { ptr, i32 } [ %35, %34 ], [ %33, %32 ]
  call void @llvm.lifetime.end.p0(i64 64, ptr nonnull %5) #19
  br label %49

.lr.ph5:                                          ; preds = %.preheader, %43
  %indvars.iv8 = phi i64 [ %indvars.iv.next9, %43 ], [ 0, %.preheader ]
  %42 = getelementptr inbounds nuw %"class.icu_77::UnicodeString", ptr %.ptr46, i64 %indvars.iv8
  invoke void @_ZN6icu_7713UnicodeString10setToBogusEv(ptr noundef nonnull align 8 dereferenceable(64) %42)
          to label %43 unwind label %47

43:                                               ; preds = %.lr.ph5
  %indvars.iv.next9 = add nuw nsw i64 %indvars.iv8, 1
  %44 = load i32, ptr %1, align 4, !tbaa !12
  %45 = sext i32 %44 to i64
  %46 = icmp slt i64 %indvars.iv.next9, %45
  br i1 %46, label %.lr.ph5, label %.loopexit, !llvm.loop !163

47:                                               ; preds = %.lr.ph5
  %48 = landingpad { ptr, i32 }
          cleanup
  br label %49

.loopexit:                                        ; preds = %37, %43, %.preheader1, %.preheader, %18
  %.1 = phi ptr [ null, %18 ], [ %.ptr46, %.preheader ], [ %.ptr46, %.preheader1 ], [ %.ptr46, %43 ], [ %.ptr46, %37 ]
  call void @_ZN6icu_7713UnicodeStringD1Ev(ptr noundef nonnull align 8 dereferenceable(64) %4) #19
  call void @llvm.lifetime.end.p0(i64 64, ptr nonnull %4) #19
  br label %50

49:                                               ; preds = %41, %47, %19
  %.pn.pn.pn = phi { ptr, i32 } [ %20, %19 ], [ %.pn, %41 ], [ %48, %47 ]
  call void @_ZN6icu_7713UnicodeStringD1Ev(ptr noundef nonnull align 8 dereferenceable(64) %4) #19
  call void @llvm.lifetime.end.p0(i64 64, ptr nonnull %4) #19
  resume { ptr, i32 } %.pn.pn.pn

50:                                               ; preds = %3, %.loopexit
  %.032 = phi ptr [ %.1, %.loopexit ], [ null, %3 ]
  ret ptr %.032
}